target datalayout = "e-m:e-p270:32:32-p271:32:32-p272:64:64-i64:64-i128:128-f80:128-n8:16:32:64-S128"
target triple = "x86_64-pc-linux-gnu"

%struct.FunctionCallInfoBaseData = type { ptr, ptr, ptr, i32, i8, i16, [0 x %struct.NullableDatum] }
%struct.NullableDatum = type { i64, i8 }
%struct.FormData_pg_enum = type { i32, i32, float, %struct.nameData }
%struct.nameData = type { [64 x i8] }
%struct.HeapTupleData = type { i32, %struct.ItemPointerData, i32, ptr }
%struct.ItemPointerData = type { %struct.BlockIdData, i16 }
%struct.BlockIdData = type { i16, i16 }
%struct.HeapTupleHeaderData = type { %union.anon, %struct.ItemPointerData, i16, i16, i8, [0 x i8] }
%union.anon = type { %struct.HeapTupleFields }
%struct.HeapTupleFields = type { i32, i32, %union.anon.0 }
%union.anon.0 = type { i32 }
%struct.StringInfoData = type { ptr, i32, i32, i32 }

@.str = private unnamed_addr constant [38 x i8] c"invalid input value for enum %s: \22%s\22\00", align 1
@.str.1 = private unnamed_addr constant [7 x i8] c"enum.c\00", align 1
@__func__.enum_recv = private unnamed_addr constant [10 x i8] c"enum_recv\00", align 1

; Function Attrs: inlinehint nounwind uwtable
define internal i64 @PointerGetDatum(ptr noundef %0) #2 {
  %2 = alloca ptr, align 8
  store ptr %0, ptr %2, align 8
  %3 = load ptr, ptr %2, align 8
  %4 = ptrtoint ptr %3 to i64
  ret i64 %4
}

; Function Attrs: inlinehint nounwind uwtable
define internal ptr @GETSTRUCT(ptr noundef %0) #2 {
  %2 = alloca ptr, align 8
  store ptr %0, ptr %2, align 8
  %3 = load ptr, ptr %2, align 8
  %4 = getelementptr inbounds nuw %struct.HeapTupleData, ptr %3, i32 0, i32 3
  %5 = load ptr, ptr %4, align 8
  %6 = load ptr, ptr %2, align 8
  %7 = getelementptr inbounds nuw %struct.HeapTupleData, ptr %6, i32 0, i32 3
  %8 = load ptr, ptr %7, align 8
  %9 = getelementptr inbounds nuw %struct.HeapTupleHeaderData, ptr %8, i32 0, i32 4
  %10 = load i8, ptr %9, align 2
  %11 = zext i8 %10 to i32
  %12 = sext i32 %11 to i64
  %13 = getelementptr inbounds i8, ptr %5, i64 %12
  ret ptr %13
}

; Function Attrs: inlinehint nounwind uwtable
define internal i64 @CStringGetDatum(ptr noundef %0) #2 {
  %2 = alloca ptr, align 8
  store ptr %0, ptr %2, align 8
  %3 = load ptr, ptr %2, align 8
  %4 = call i64 @PointerGetDatum(ptr noundef %3)
  ret i64 %4
}

; Function Attrs: inlinehint nounwind uwtable
define internal i64 @ObjectIdGetDatum(i32 noundef %0) #2 {
  %2 = alloca i32, align 4
  store i32 %0, ptr %2, align 4
  %3 = load i32, ptr %2, align 4
  %4 = zext i32 %3 to i64
  ret i64 %4
}

; Function Attrs: inlinehint nounwind uwtable
define internal i32 @DatumGetObjectId(i64 noundef %0) #2 {
  %2 = alloca i64, align 8
  store i64 %0, ptr %2, align 8
  %3 = load i64, ptr %2, align 8
  %4 = trunc i64 %3 to i32
  ret i32 %4
}

; Function Attrs: inlinehint nounwind uwtable
define internal ptr @DatumGetPointer(i64 noundef %0) #2 {
  %2 = alloca i64, align 8
  store i64 %0, ptr %2, align 8
  %3 = load i64, ptr %2, align 8
  %4 = inttoptr i64 %3 to ptr
  ret ptr %4
}

; Function Attrs: nounwind uwtable
define dso_local i64 @enum_recv(ptr noundef %0) #0 {
  %2 = alloca ptr, align 8
  %3 = alloca ptr, align 8
  %4 = alloca i32, align 4
  %5 = alloca i32, align 4
  %6 = alloca ptr, align 8
  %7 = alloca ptr, align 8
  %8 = alloca i32, align 4
  store ptr %0, ptr %2, align 8
  call void @llvm.lifetime.start.p0(i64 8, ptr %3) #6
  %9 = load ptr, ptr %2, align 8
  %10 = getelementptr inbounds nuw %struct.FunctionCallInfoBaseData, ptr %9, i32 0, i32 6
  %11 = getelementptr inbounds [0 x %struct.NullableDatum], ptr %10, i64 0, i64 0
  %12 = getelementptr inbounds nuw %struct.NullableDatum, ptr %11, i32 0, i32 0
  %13 = load i64, ptr %12, align 8
  %14 = call ptr @DatumGetPointer(i64 noundef %13)
  store ptr %14, ptr %3, align 8
  call void @llvm.lifetime.start.p0(i64 4, ptr %4) #6
  %15 = load ptr, ptr %2, align 8
  %16 = getelementptr inbounds nuw %struct.FunctionCallInfoBaseData, ptr %15, i32 0, i32 6
  %17 = getelementptr inbounds [0 x %struct.NullableDatum], ptr %16, i64 0, i64 1
  %18 = getelementptr inbounds nuw %struct.NullableDatum, ptr %17, i32 0, i32 0
  %19 = load i64, ptr %18, align 8
  %20 = call i32 @DatumGetObjectId(i64 noundef %19)
  store i32 %20, ptr %4, align 4
  call void @llvm.lifetime.start.p0(i64 4, ptr %5) #6
  call void @llvm.lifetime.start.p0(i64 8, ptr %6) #6
  call void @llvm.lifetime.start.p0(i64 8, ptr %7) #6
  call void @llvm.lifetime.start.p0(i64 4, ptr %8) #6
  %21 = load ptr, ptr %3, align 8
  %22 = load ptr, ptr %3, align 8
  %23 = getelementptr inbounds nuw %struct.StringInfoData, ptr %22, i32 0, i32 1
  %24 = load i32, ptr %23, align 8
  %25 = load ptr, ptr %3, align 8
  %26 = getelementptr inbounds nuw %struct.StringInfoData, ptr %25, i32 0, i32 3
  %27 = load i32, ptr %26, align 8
  %28 = sub i32 %24, %27
  %29 = call ptr @pq_getmsgtext(ptr noundef %21, i32 noundef %28, ptr noundef %8)
  store ptr %29, ptr %7, align 8
  %30 = load ptr, ptr %7, align 8
  %31 = call i64 @strlen(ptr noundef %30) #7
  %32 = icmp uge i64 %31, 64
  br i1 %32, label %33, label %48

33:                                               ; preds = %1
  br label %34

34:                                               ; preds = %33
  br i1 true, label %35, label %37

35:                                               ; preds = %34
  %36 = call zeroext i1 @errstart_cold(i32 noundef 21, ptr noundef null) #8
  br i1 %36, label %39, label %45

37:                                               ; preds = %34
  %38 = call zeroext i1 @errstart(i32 noundef 21, ptr noundef null)
  br i1 %38, label %39, label %45

39:                                               ; preds = %37, %35
  %40 = call i32 @errcode(i32 noundef 33685634)
  %41 = load i32, ptr %4, align 4
  %42 = call ptr @format_type_be(i32 noundef %41)
  %43 = load ptr, ptr %7, align 8
  %44 = call i32 (ptr, ...) @errmsg(ptr noundef @.str, ptr noundef %42, ptr noundef %43)
  call void @errfinish(ptr noundef @.str.1, i32 noundef 196, ptr noundef @__func__.enum_recv)
  br label %45

45:                                               ; preds = %39, %37, %35
  unreachable

46:                                               ; No predecessors!
  br label %47

47:                                               ; preds = %46
  br label %48

48:                                               ; preds = %47, %1
  %49 = load i32, ptr %4, align 4
  %50 = call i64 @ObjectIdGetDatum(i32 noundef %49)
  %51 = load ptr, ptr %7, align 8
  %52 = call i64 @CStringGetDatum(ptr noundef %51)
  %53 = call ptr @SearchSysCache2(i32 noundef 24, i64 noundef %50, i64 noundef %52)
  store ptr %53, ptr %6, align 8
  %54 = load ptr, ptr %6, align 8
  %55 = icmp ne ptr %54, null
  br i1 %55, label %71, label %56

56:                                               ; preds = %48
  br label %57

57:                                               ; preds = %56
  br i1 true, label %58, label %60

58:                                               ; preds = %57
  %59 = call zeroext i1 @errstart_cold(i32 noundef 21, ptr noundef null) #8
  br i1 %59, label %62, label %68

60:                                               ; preds = %57
  %61 = call zeroext i1 @errstart(i32 noundef 21, ptr noundef null)
  br i1 %61, label %62, label %68

62:                                               ; preds = %60, %58
  %63 = call i32 @errcode(i32 noundef 33685634)
  %64 = load i32, ptr %4, align 4
  %65 = call ptr @format_type_be(i32 noundef %64)
  %66 = load ptr, ptr %7, align 8
  %67 = call i32 (ptr, ...) @errmsg(ptr noundef @.str, ptr noundef %65, ptr noundef %66)
  call void @errfinish(ptr noundef @.str.1, i32 noundef 206, ptr noundef @__func__.enum_recv)
  br label %68

68:                                               ; preds = %62, %60, %58
  unreachable

69:                                               ; No predecessors!
  br label %70

70:                                               ; preds = %69
  br label %71

71:                                               ; preds = %70, %48
  %72 = load ptr, ptr %6, align 8
  call void @check_safe_enum_use(ptr noundef %72)
  %73 = load ptr, ptr %6, align 8
  %74 = call ptr @GETSTRUCT(ptr noundef %73)
  %75 = getelementptr inbounds nuw %struct.FormData_pg_enum, ptr %74, i32 0, i32 0
  %76 = load i32, ptr %75, align 4
  store i32 %76, ptr %5, align 4
  %77 = load ptr, ptr %6, align 8
  call void @ReleaseSysCache(ptr noundef %77)
  %78 = load ptr, ptr %7, align 8
  call void @pfree(ptr noundef %78)
  %79 = load i32, ptr %5, align 4
  %80 = call i64 @ObjectIdGetDatum(i32 noundef %79)
  call void @llvm.lifetime.end.p0(i64 4, ptr %8) #6
  call void @llvm.lifetime.end.p0(i64 8, ptr %7) #6
  call void @llvm.lifetime.end.p0(i64 8, ptr %6) #6
  call void @llvm.lifetime.end.p0(i64 4, ptr %5) #6
  call void @llvm.lifetime.end.p0(i64 4, ptr %4) #6
  call void @llvm.lifetime.end.p0(i64 8, ptr %3) #6
  ret i64 %80
}