; Function Attrs: nounwind uwtable
define dso_local range(i64 0, 4294967296) i64 @enum_recv(ptr noundef readonly captures(none) %0) local_unnamed_addr #0 {
  %2 = alloca i32, align 4
  %3 = getelementptr inbounds nuw i8, ptr %0, i64 32
  %4 = load i64, ptr %3, align 8
  %5 = inttoptr i64 %4 to ptr
  %6 = getelementptr inbounds nuw i8, ptr %0, i64 48
  %7 = load i64, ptr %6, align 8
  %8 = trunc i64 %7 to i32
  call void @llvm.lifetime.start.p0(i64 4, ptr nonnull %2) #8
  %9 = getelementptr inbounds nuw i8, ptr %5, i64 8
  %10 = load i32, ptr %9, align 8
  %11 = getelementptr inbounds nuw i8, ptr %5, i64 16
  %12 = load i32, ptr %11, align 8
  %13 = sub i32 %10, %12
  %14 = call ptr @pq_getmsgtext(ptr noundef %5, i32 noundef %13, ptr noundef nonnull %2) #8
  %15 = call i64 @strlen(ptr noundef nonnull dereferenceable(1) %14) #7
  %16 = icmp ugt i64 %15, 63
  br i1 %16, label %17, label %22

17:                                               ; preds = %1
  %18 = call zeroext i1 @errstart_cold(i32 noundef 21, ptr noundef null) #9
  call void @llvm.assume(i1 %18)
  %19 = call i32 @errcode(i32 noundef 33685634) #8
  %20 = call ptr @format_type_be(i32 noundef %8) #8
  %21 = call i32 (ptr, ...) @errmsg(ptr noundef nonnull @.str, ptr noundef %20, ptr noundef nonnull %14) #8
  call void @errfinish(ptr noundef nonnull @.str.1, i32 noundef 196, ptr noundef nonnull @__func__.enum_recv) #8
  unreachable

22:                                               ; preds = %1
  %23 = and i64 %7, 4294967295
  %24 = ptrtoint ptr %14 to i64
  %25 = call ptr @SearchSysCache2(i32 noundef 24, i64 noundef %23, i64 noundef %24) #8
  %.not = icmp eq ptr %25, null
  br i1 %.not, label %26, label %31

26:                                               ; preds = %22
  %27 = call zeroext i1 @errstart_cold(i32 noundef 21, ptr noundef null) #9
  call void @llvm.assume(i1 %27)
  %28 = call i32 @errcode(i32 noundef 33685634) #8
  %29 = call ptr @format_type_be(i32 noundef %8) #8
  %30 = call i32 (ptr, ...) @errmsg(ptr noundef nonnull @.str, ptr noundef %29, ptr noundef nonnull %14) #8
  call void @errfinish(ptr noundef nonnull @.str.1, i32 noundef 206, ptr noundef nonnull @__func__.enum_recv) #8
  unreachable

31:                                               ; preds = %22
  %32 = getelementptr i8, ptr %25, i64 16
  %.val17 = load ptr, ptr %32, align 8
  call fastcc void @check_safe_enum_use(ptr %.val17)
  %.val = load ptr, ptr %32, align 8
  %33 = getelementptr inbounds nuw i8, ptr %.val, i64 22
  %34 = load i8, ptr %33, align 2
  %35 = zext i8 %34 to i64
  %36 = getelementptr inbounds nuw i8, ptr %.val, i64 %35
  %37 = load i32, ptr %36, align 4
  call void @ReleaseSysCache(ptr noundef nonnull %25) #8
  call void @pfree(ptr noundef nonnull %14) #8
  %38 = zext i32 %37 to i64
  call void @llvm.lifetime.end.p0(i64 4, ptr nonnull %2) #8
  ret i64 %38
}